target datalayout = "e-m:e-p270:32:32-p271:32:32-p272:64:64-i64:64-i128:128-f80:128-n8:16:32:64-S128"
target triple = "x86_64-pc-linux-gnu"

%"class.icu_77::UnicodeString" = type { %"class.icu_77::Replaceable", %"union.icu_77::UnicodeString::StackBufferOrFields" }
%"class.icu_77::Replaceable" = type { %"class.icu_77::UObject" }
%"class.icu_77::UObject" = type { ptr }
%"union.icu_77::UnicodeString::StackBufferOrFields" = type { %struct.anon.0, [32 x i8] }
%struct.anon.0 = type { i16, i32, i32, ptr }
%"class.icu_77::RuleBasedNumberFormat" = type { %"class.icu_77::NumberFormat.base", ptr, ptr, i32, ptr, %"class.icu_77::Locale", ptr, ptr, ptr, ptr, i32, i8, ptr, ptr, %"class.icu_77::UnicodeString", i8, i8, i8, ptr }
%"class.icu_77::NumberFormat.base" = type <{ %"class.icu_77::Format", i8, [3 x i8], i32, i32, i32, i32, i8, i8, [4 x i16], [2 x i8], i32 }>
%"class.icu_77::Format" = type { %"class.icu_77::UObject", ptr, ptr }
%"class.icu_77::Locale" = type <{ %"class.icu_77::UObject", [12 x i8], [6 x i8], [4 x i8], [2 x i8], i32, [4 x i8], ptr, [157 x i8], [3 x i8], ptr, i8, [7 x i8] }>

; Function Attrs: mustprogress nounwind uwtable
define void @_ZN6icu_7721RuleBasedNumberFormat10setLenientEa(ptr noundef nonnull align 8 dereferenceable(456) %0, i8 noundef signext %1) unnamed_addr #0 align 2 {
  %3 = alloca ptr, align 8
  %4 = alloca i8, align 1
  store ptr %0, ptr %3, align 8, !tbaa !3
  store i8 %1, ptr %4, align 1, !tbaa !39
  %5 = load ptr, ptr %3, align 8
  %6 = load i8, ptr %4, align 1, !tbaa !39
  %7 = getelementptr inbounds nuw %"class.icu_77::RuleBasedNumberFormat", ptr %5, i32 0, i32 11
  store i8 %6, ptr %7, align 4, !tbaa !112
  %8 = load i8, ptr %4, align 1, !tbaa !39
  %9 = icmp ne i8 %8, 0
  br i1 %9, label %21, label %10

10:                                               ; preds = %2
  %11 = getelementptr inbounds nuw %"class.icu_77::RuleBasedNumberFormat", ptr %5, i32 0, i32 6
  %12 = load ptr, ptr %11, align 8, !tbaa !107
  %13 = icmp ne ptr %12, null
  br i1 %13, label %14, label %21

14:                                               ; preds = %10
  %15 = getelementptr inbounds nuw %"class.icu_77::RuleBasedNumberFormat", ptr %5, i32 0, i32 6
  %16 = load ptr, ptr %15, align 8, !tbaa !107
  %17 = icmp eq ptr %16, null
  br i1 %17, label %19, label %18

18:                                               ; preds = %14
  call void @_ZN6icu_7717RuleBasedCollatorD1Ev(ptr noundef nonnull align 8 dereferenceable(272) %16) #14
  call void @_ZN6icu_777UMemorydlEPv(ptr noundef %16) #14
  br label %19

19:                                               ; preds = %18, %14
  %20 = getelementptr inbounds nuw %"class.icu_77::RuleBasedNumberFormat", ptr %5, i32 0, i32 6
  store ptr null, ptr %20, align 8, !tbaa !107
  br label %21

21:                                               ; preds = %19, %10, %2
  ret void
}