; Function Attrs: mustprogress nounwind uwtable
define void @_ZN6icu_7721RuleBasedNumberFormat10setLenientEa(ptr noundef nonnull align 8 captures(none) dereferenceable(456) initializes((356, 357)) %0, i8 noundef signext %1) unnamed_addr #7 align 2 {
  %3 = getelementptr inbounds nuw i8, ptr %0, i64 356
  store i8 %1, ptr %3, align 4, !tbaa !85
  %.not = icmp eq i8 %1, 0
  br i1 %.not, label %4, label %8

4:                                                ; preds = %2
  %5 = getelementptr inbounds nuw i8, ptr %0, i64 320
  %6 = load ptr, ptr %5, align 8, !tbaa !111
  %.not2 = icmp eq ptr %6, null
  br i1 %.not2, label %8, label %7

7:                                                ; preds = %4
  tail call void @_ZN6icu_7717RuleBasedCollatorD1Ev(ptr noundef nonnull align 8 dereferenceable(272) %6) #21
  tail call void @_ZN6icu_777UMemorydlEPv(ptr noundef nonnull %6) #21
  store ptr null, ptr %5, align 8, !tbaa !111
  br label %8

8:                                                ; preds = %7, %4, %2
  ret void
}